target datalayout = "e-m:e-p270:32:32-p271:32:32-p272:64:64-i64:64-i128:128-f80:128-n8:16:32:64-S128"
target triple = "x86_64-pc-linux-gnu"

@qemuio_misalign = dso_local global i8 0, align 1
@error_abort = external global ptr, align 8

; Function Attrs: alwaysinline nounwind
define internal ptr @memset.inline(ptr nonnull %0, i32 %1, i64 %2) #12 {
  %4 = alloca ptr, align 8
  %5 = alloca i32, align 4
  %6 = alloca i64, align 8
  store ptr %0, ptr %4, align 8
  store i32 %1, ptr %5, align 4
  store i64 %2, ptr %6, align 8
  %7 = load ptr, ptr %4, align 8
  %8 = load i32, ptr %5, align 4
  %9 = load i64, ptr %6, align 8
  %10 = load ptr, ptr %4, align 8
  %11 = call i64 @llvm.objectsize.i64.p0(ptr %10, i1 false, i1 true, i1 false)
  %12 = call ptr @__memset_chk(ptr noundef %7, i32 noundef %8, i64 noundef %9, i64 noundef %11) #18
  ret ptr %12
}

; Function Attrs: nounwind sspstrong uwtable
define internal ptr @qemu_io_alloc(ptr noundef %0, i64 noundef %1, i32 noundef %2, i1 noundef zeroext %3) #0 {
  %5 = alloca ptr, align 8
  %6 = alloca i64, align 8
  %7 = alloca i32, align 4
  %8 = alloca i8, align 1
  %9 = alloca ptr, align 8
  store ptr %0, ptr %5, align 8
  store i64 %1, ptr %6, align 8
  store i32 %2, ptr %7, align 4
  %10 = zext i1 %3 to i8
  store i8 %10, ptr %8, align 1
  call void @llvm.lifetime.start.p0(i64 8, ptr %9) #18
  store ptr null, ptr %9, align 8, !annotation !4
  %11 = load i8, ptr @qemuio_misalign, align 1, !range !11, !noundef !12
  %12 = trunc i8 %11 to i1
  br i1 %12, label %13, label %16

13:                                               ; preds = %4
  %14 = load i64, ptr %6, align 8
  %15 = add i64 %14, 16
  store i64 %15, ptr %6, align 8
  br label %16

16:                                               ; preds = %13, %4
  %17 = load ptr, ptr %5, align 8
  %18 = load i64, ptr %6, align 8
  %19 = call ptr @blk_blockalign(ptr noundef %17, i64 noundef %18)
  store ptr %19, ptr %9, align 8
  %20 = load ptr, ptr %9, align 8
  %21 = load i32, ptr %7, align 4
  %22 = load i64, ptr %6, align 8
  %23 = call ptr @memset.inline(ptr noundef %20, i32 noundef %21, i64 noundef %22) #18
  %24 = load i8, ptr %8, align 1, !range !11, !noundef !12
  %25 = trunc i8 %24 to i1
  br i1 %25, label %26, label %31

26:                                               ; preds = %16
  %27 = load ptr, ptr %5, align 8
  %28 = load ptr, ptr %9, align 8
  %29 = load i64, ptr %6, align 8
  %30 = call zeroext i1 @blk_register_buf(ptr noundef %27, ptr noundef %28, i64 noundef %29, ptr noundef @error_abort)
  br label %31

31:                                               ; preds = %26, %16
  %32 = load i8, ptr @qemuio_misalign, align 1, !range !11, !noundef !12
  %33 = trunc i8 %32 to i1
  br i1 %33, label %34, label %37

34:                                               ; preds = %31
  %35 = load ptr, ptr %9, align 8
  %36 = getelementptr inbounds i8, ptr %35, i64 16
  store ptr %36, ptr %9, align 8
  br label %37

37:                                               ; preds = %34, %31
  %38 = load ptr, ptr %9, align 8
  call void @llvm.lifetime.end.p0(i64 8, ptr %9) #18
  ret ptr %38
}