; Function Attrs: nounwind sspstrong uwtable
define internal fastcc ptr @qemu_io_alloc(ptr noundef %0, i64 noundef range(i64 0, -9223372036854775808) %1, i32 noundef range(i32 0, -2147483648) %2, i1 noundef zeroext %3) unnamed_addr #0 {
  %5 = load i8, ptr @qemuio_misalign, align 1, !range !11, !noundef !12
  %6 = trunc nuw i8 %5 to i1
  %7 = add nuw i64 %1, 16
  %spec.select = select i1 %6, i64 %7, i64 %1
  %8 = tail call ptr @blk_blockalign(ptr noundef %0, i64 noundef %spec.select) #26
  %9 = trunc i32 %2 to i8
  tail call void @llvm.memset.p0.i64(ptr noundef nonnull align 1 %8, i8 noundef %9, i64 noundef %spec.select, i1 noundef false) #26
  br i1 %3, label %10, label %12

10:                                               ; preds = %4
  %11 = tail call zeroext i1 @blk_register_buf(ptr noundef %0, ptr noundef nonnull %8, i64 noundef %spec.select, ptr noundef nonnull @error_abort) #26
  br label %12

12:                                               ; preds = %10, %4
  %13 = load i8, ptr @qemuio_misalign, align 1, !range !11, !noundef !12
  %14 = trunc nuw i8 %13 to i1
  %spec.select12.idx = select i1 %14, i64 16, i64 0
  %spec.select12 = getelementptr inbounds nuw i8, ptr %8, i64 %spec.select12.idx
  ret ptr %spec.select12
}